target datalayout = "e-m:e-p270:32:32-p271:32:32-p272:64:64-i64:64-i128:128-f80:128-n8:16:32:64-S128"
target triple = "x86_64-pc-linux-gnu"

%"class.(anonymous namespace)::RefWrapper" = type { ptr }
%"class.cv::Matx.24" = type { [2 x i32] }

; Function Attrs: mustprogress nounwind uwtable
define internal void @_ZN12_GLOBAL__N_110RefWrapperIiEC2ERi(ptr noundef nonnull align 8 dereferenceable(8) %0, ptr noundef nonnull align 4 dereferenceable(4) %1) unnamed_addr #5 align 2 {
  %3 = alloca ptr, align 8
  %4 = alloca ptr, align 8
  store ptr %0, ptr %3, align 8
  store ptr %1, ptr %4, align 8
  %5 = load ptr, ptr %3, align 8
  %6 = getelementptr inbounds %"class.(anonymous namespace)::RefWrapper", ptr %5, i32 0, i32 0
  %7 = load ptr, ptr %4, align 8
  store ptr %7, ptr %6, align 8
  ret void
}

; Function Attrs: mustprogress nounwind uwtable
define linkonce_odr hidden noundef nonnull align 4 dereferenceable(4) ptr @_ZN2cv3VecIiLi2EEixEi(ptr noundef nonnull align 4 dereferenceable(8) %0, i32 noundef %1) #5 comdat align 2 {
  %3 = alloca ptr, align 8
  %4 = alloca i32, align 4
  store ptr %0, ptr %3, align 8
  store i32 %1, ptr %4, align 4
  %5 = load ptr, ptr %3, align 8
  %6 = getelementptr inbounds %"class.cv::Matx.24", ptr %5, i32 0, i32 0
  %7 = load i32, ptr %4, align 4
  %8 = sext i32 %7 to i64
  %9 = getelementptr inbounds [2 x i32], ptr %6, i64 0, i64 %8
  ret ptr %9
}

; Function Attrs: mustprogress uwtable
define hidden noundef zeroext i1 @_Z11pyopencv_toP7_objectRN2cv3VecIiLi2EEER7ArgInfo(ptr noundef %0, ptr noundef nonnull align 4 dereferenceable(8) %1, ptr noundef nonnull align 8 dereferenceable(12) %2) #4 {
  %4 = alloca ptr, align 8
  %5 = alloca ptr, align 8
  %6 = alloca ptr, align 8
  %7 = alloca [2 x %"class.(anonymous namespace)::RefWrapper"], align 16
  store ptr %0, ptr %4, align 8
  store ptr %1, ptr %5, align 8
  store ptr %2, ptr %6, align 8
  %8 = load ptr, ptr %5, align 8
  %9 = call noundef nonnull align 4 dereferenceable(4) ptr @_ZN2cv3VecIiLi2EEixEi(ptr noundef nonnull align 4 dereferenceable(8) %8, i32 noundef 0)
  call void @_ZN12_GLOBAL__N_110RefWrapperIiEC2ERi(ptr noundef nonnull align 8 dereferenceable(8) %7, ptr noundef nonnull align 4 dereferenceable(4) %9)
  %10 = getelementptr inbounds %"class.(anonymous namespace)::RefWrapper", ptr %7, i64 1
  %11 = load ptr, ptr %5, align 8
  %12 = call noundef nonnull align 4 dereferenceable(4) ptr @_ZN2cv3VecIiLi2EEixEi(ptr noundef nonnull align 4 dereferenceable(8) %11, i32 noundef 1)
  call void @_ZN12_GLOBAL__N_110RefWrapperIiEC2ERi(ptr noundef nonnull align 8 dereferenceable(8) %10, ptr noundef nonnull align 4 dereferenceable(4) %12)
  %13 = load ptr, ptr %4, align 8
  %14 = load ptr, ptr %6, align 8
  %15 = call noundef zeroext i1 @_ZN12_GLOBAL__N_113parseSequenceIiLm2EEEbP7_objectRAT0__NS_10RefWrapperIT_EERK7ArgInfo(ptr noundef %13, ptr noundef nonnull align 8 dereferenceable(16) %7, ptr noundef nonnull align 8 dereferenceable(12) %14)
  ret i1 %15
}